; Function Attrs: mustprogress nounwind uwtable
define hidden void @_ZN6Assimp7OpenGEX15OpenGEXImporter15VertexContainerD2Ev(ptr nocapture noundef nonnull readonly align 8 dereferenceable(192) %this) unnamed_addr #0 align 2 personality ptr @__gxx_personality_v0 {
entry:
  %m_colors = getelementptr inbounds i8, ptr %this, i64 32
  %0 = load ptr, ptr %m_colors, align 8
  %isnull = icmp eq ptr %0, null
  br i1 %isnull, label %for.body.preheader, label %delete.notnull

delete.notnull:                                   ; preds = %entry
  tail call void @_ZdaPv(ptr noundef nonnull %0) #26
  br label %for.body.preheader

for.body.preheader:                               ; preds = %delete.notnull, %entry
  br label %for.body

for.body:                                         ; preds = %for.body.preheader, %for.inc
  %__begin2.0.idx8 = phi i64 [ %__begin2.0.add, %for.inc ], [ 128, %for.body.preheader ]
  %__begin2.0.ptr = getelementptr inbounds i8, ptr %this, i64 %__begin2.0.idx8
  %1 = load ptr, ptr %__begin2.0.ptr, align 8
  %isnull3 = icmp eq ptr %1, null
  br i1 %isnull3, label %for.inc, label %delete.notnull4

delete.notnull4:                                  ; preds = %for.body
  tail call void @_ZdaPv(ptr noundef nonnull %1) #26
  br label %for.inc

for.inc:                                          ; preds = %for.body, %delete.notnull4
  %__begin2.0.add = add nuw nsw i64 %__begin2.0.idx8, 8
  %cmp.not = icmp eq i64 %__begin2.0.add, 192
  br i1 %cmp.not, label %for.end, label %for.body

for.end:                                          ; preds = %for.inc
  %m_normals = getelementptr inbounds i8, ptr %this, i64 40
  %2 = load ptr, ptr %m_normals, align 8
  %tobool.not.i.i.i = icmp eq ptr %2, null
  br i1 %tobool.not.i.i.i, label %_ZNSt6vectorI10aiVector3tIfESaIS1_EED2Ev.exit, label %if.then.i.i.i

if.then.i.i.i:                                    ; preds = %for.end
  tail call void @_ZdlPv(ptr noundef nonnull %2) #26
  br label %_ZNSt6vectorI10aiVector3tIfESaIS1_EED2Ev.exit

_ZNSt6vectorI10aiVector3tIfESaIS1_EED2Ev.exit:    ; preds = %for.end, %if.then.i.i.i
  %3 = load ptr, ptr %this, align 8
  %tobool.not.i.i.i5 = icmp eq ptr %3, null
  br i1 %tobool.not.i.i.i5, label %_ZNSt6vectorI10aiVector3tIfESaIS1_EED2Ev.exit7, label %if.then.i.i.i6

if.then.i.i.i6:                                   ; preds = %_ZNSt6vectorI10aiVector3tIfESaIS1_EED2Ev.exit
  tail call void @_ZdlPv(ptr noundef nonnull %3) #26
  br label %_ZNSt6vectorI10aiVector3tIfESaIS1_EED2Ev.exit7

_ZNSt6vectorI10aiVector3tIfESaIS1_EED2Ev.exit7:   ; preds = %_ZNSt6vectorI10aiVector3tIfESaIS1_EED2Ev.exit, %if.then.i.i.i6
  ret void
}